target datalayout = "e-m:e-p270:32:32-p271:32:32-p272:64:64-i64:64-i128:128-f80:128-n8:16:32:64-S128"
target triple = "x86_64-pc-linux-gnu"

%class.tbv_manager = type { %class.fixed_bit_vector_manager, %class.ptr_vector }
%class.fixed_bit_vector_manager = type <{ %class.small_object_allocator, i32, i32, i32, i32, %class.fixed_bit_vector, [4 x i8] }>
%class.small_object_allocator = type { [32 x ptr], [32 x ptr], i64 }
%class.fixed_bit_vector = type { [1 x i32] }
%class.ptr_vector = type { %class.vector }
%class.vector = type { ptr }

; Function Attrs: mustprogress nounwind uwtable
define linkonce_odr hidden noundef i32 @_ZNK24fixed_bit_vector_manager9num_bytesEv(ptr noundef nonnull align 8 dereferenceable(540) %0) #4 comdat align 2 {
  %2 = alloca ptr, align 8
  store ptr %0, ptr %2, align 8, !tbaa !12
  %3 = load ptr, ptr %2, align 8
  %4 = getelementptr inbounds nuw %class.fixed_bit_vector_manager, ptr %3, i32 0, i32 2
  %5 = load i32, ptr %4, align 4, !tbaa !47
  ret i32 %5
}

; Function Attrs: mustprogress uwtable
define linkonce_odr hidden noundef nonnull align 4 dereferenceable(4) ptr @_ZNK24fixed_bit_vector_manager5resetER16fixed_bit_vector(ptr noundef nonnull align 8 dereferenceable(540) %0, ptr noundef nonnull align 4 dereferenceable(4) %1) #6 comdat align 2 {
  %3 = alloca ptr, align 8
  %4 = alloca ptr, align 8
  store ptr %0, ptr %3, align 8, !tbaa !12
  store ptr %1, ptr %4, align 8, !tbaa !16
  %5 = load ptr, ptr %3, align 8
  %6 = load ptr, ptr %4, align 8, !tbaa !16
  %7 = call noundef nonnull align 4 dereferenceable(4) ptr @_ZNK24fixed_bit_vector_manager5fill0ER16fixed_bit_vector(ptr noundef nonnull align 8 dereferenceable(540) %5, ptr noundef nonnull align 4 dereferenceable(4) %6)
  ret ptr %7
}

; Function Attrs: mustprogress uwtable
define hidden noundef nonnull align 4 dereferenceable(4) ptr @_ZNK11tbv_manager5fill1ER3tbv(ptr noundef nonnull align 8 dereferenceable(552) %0, ptr noundef nonnull align 4 dereferenceable(4) %1) #6 align 2 {
  %3 = alloca ptr, align 8
  %4 = alloca ptr, align 8
  store ptr %0, ptr %3, align 8, !tbaa !7
  store ptr %1, ptr %4, align 8, !tbaa !14
  %5 = load ptr, ptr %3, align 8
  %6 = load ptr, ptr %4, align 8, !tbaa !14
  %7 = getelementptr inbounds nuw %class.fixed_bit_vector, ptr %6, i32 0, i32 0
  %8 = getelementptr inbounds [1 x i32], ptr %7, i64 0, i64 0
  %9 = getelementptr inbounds nuw %class.tbv_manager, ptr %5, i32 0, i32 0
  %10 = call noundef i32 @_ZNK24fixed_bit_vector_manager9num_bytesEv(ptr noundef nonnull align 8 dereferenceable(540) %9)
  %11 = zext i32 %10 to i64
  call void @llvm.memset.p0.i64(ptr align 4 %8, i8 85, i64 %11, i1 false)
  %12 = load ptr, ptr %4, align 8, !tbaa !14
  ret ptr %12
}

; Function Attrs: mustprogress uwtable
define hidden noundef ptr @_ZN11tbv_manager8allocateEv(ptr noundef nonnull align 8 dereferenceable(552) %0) #6 align 2 {
  %2 = alloca ptr, align 8
  %3 = alloca ptr, align 8
  store ptr %0, ptr %2, align 8, !tbaa !7
  %4 = load ptr, ptr %2, align 8
  call void @llvm.lifetime.start.p0(i64 8, ptr %3) #3
  %5 = getelementptr inbounds nuw %class.tbv_manager, ptr %4, i32 0, i32 0
  %6 = call noundef ptr @_ZN24fixed_bit_vector_manager8allocateEv(ptr noundef nonnull align 8 dereferenceable(540) %5)
  store ptr %6, ptr %3, align 8, !tbaa !14
  %7 = getelementptr inbounds nuw %class.tbv_manager, ptr %4, i32 0, i32 0
  %8 = load ptr, ptr %3, align 8, !tbaa !14
  %9 = call noundef nonnull align 4 dereferenceable(4) ptr @_ZNK24fixed_bit_vector_manager5resetER16fixed_bit_vector(ptr noundef nonnull align 8 dereferenceable(540) %7, ptr noundef nonnull align 4 dereferenceable(4) %8)
  %10 = load ptr, ptr %3, align 8, !tbaa !14
  call void @llvm.lifetime.end.p0(i64 8, ptr %3) #3
  ret ptr %10
}

; Function Attrs: mustprogress uwtable
define hidden noundef ptr @_ZN11tbv_manager9allocate1Ev(ptr noundef nonnull align 8 dereferenceable(552) %0) #6 align 2 {
  %2 = alloca ptr, align 8
  %3 = alloca ptr, align 8
  store ptr %0, ptr %2, align 8, !tbaa !7
  %4 = load ptr, ptr %2, align 8
  call void @llvm.lifetime.start.p0(i64 8, ptr %3) #3
  %5 = call noundef ptr @_ZN11tbv_manager8allocateEv(ptr noundef nonnull align 8 dereferenceable(552) %4)
  store ptr %5, ptr %3, align 8, !tbaa !14
  %6 = load ptr, ptr %3, align 8, !tbaa !14
  %7 = call noundef nonnull align 4 dereferenceable(4) ptr @_ZNK11tbv_manager5fill1ER3tbv(ptr noundef nonnull align 8 dereferenceable(552) %4, ptr noundef nonnull align 4 dereferenceable(4) %6)
  %8 = load ptr, ptr %3, align 8, !tbaa !14
  call void @llvm.lifetime.end.p0(i64 8, ptr %3) #3
  ret ptr %8
}