; Function Attrs: mustprogress uwtable
define hidden noundef ptr @_ZN11tbv_manager9allocate1Ev(ptr noundef nonnull align 8 dereferenceable(552) %0) local_unnamed_addr #5 align 2 {
  %2 = tail call noundef ptr @_ZN24fixed_bit_vector_manager8allocateEv(ptr noundef nonnull align 8 dereferenceable(552) %0)
  %3 = tail call noundef nonnull align 4 dereferenceable(4) ptr @_ZNK24fixed_bit_vector_manager5fill0ER16fixed_bit_vector(ptr noundef nonnull align 8 dereferenceable(552) %0, ptr noundef nonnull align 4 dereferenceable(4) %2)
  %4 = getelementptr inbounds nuw i8, ptr %0, i64 524
  %5 = load i32, ptr %4, align 4, !tbaa !10
  %6 = zext i32 %5 to i64
  tail call void @llvm.memset.p0.i64(ptr nonnull align 4 dereferenceable(4) %2, i8 85, i64 %6, i1 false)
  ret ptr %2
}